; Function Attrs: null_pointer_is_valid sspstrong uwtable
define internal range(i32 -268435456, 268435456) i32 @dissect_TargettoSource_Failure_TransparentContainer_PDU(ptr noundef %0, ptr noundef %1, ptr noundef %2, ptr readnone captures(none) %3) #0 {
  %5 = alloca %struct._asn1_ctx_t, align 8
  %6 = alloca ptr, align 8
  %7 = alloca %struct._asn1_ctx_t, align 8
  call void @llvm.lifetime.start.p0(i64 208, ptr nonnull %7) #12
  call void @asn1_ctx_init(ptr noundef nonnull %7, i32 noundef 1, i1 noundef zeroext true, ptr noundef %1)
  %8 = load i32, ptr @hf_ngap_TargettoSource_Failure_TransparentContainer_PDU, align 4
  call void @llvm.lifetime.start.p0(i64 8, ptr nonnull %6) #12
  %9 = call i32 @dissect_per_octet_string(ptr noundef %0, i32 noundef 0, ptr noundef nonnull %7, ptr noundef %2, i32 noundef %8, i32 noundef -1, i32 noundef -1, i1 noundef zeroext false, ptr noundef nonnull %6)
  %10 = load i8, ptr @ngap_dissect_container, align 1, !range !6, !noundef !7
  %11 = trunc nuw i8 %10 to i1
  %12 = load ptr, ptr %6, align 8
  %13 = icmp ne ptr %12, null
  %or.cond.i = select i1 %11, i1 %13, i1 false
  br i1 %or.cond.i, label %14, label %dissect_ngap_TargettoSource_Failure_TransparentContainer.exit

14:                                               ; preds = %4
  %15 = call i32 @tvb_reported_length(ptr noundef nonnull %12)
  %.not.i = icmp eq i32 %15, 0
  br i1 %.not.i, label %dissect_ngap_TargettoSource_Failure_TransparentContainer.exit, label %16

16:                                               ; preds = %14
  %17 = getelementptr inbounds nuw i8, ptr %7, i64 16
  %18 = load ptr, ptr %17, align 8
  %19 = getelementptr inbounds nuw i8, ptr %18, i64 408
  %20 = load ptr, ptr %19, align 8
  %21 = load i32, ptr @proto_ngap, align 4
  %22 = call ptr @p_get_proto_data(ptr noundef %20, ptr noundef %18, i32 noundef %21, i32 noundef 0)
  %.not.i.i = icmp eq ptr %22, null
  br i1 %.not.i.i, label %23, label %ngap_get_private_data.exit.i

23:                                               ; preds = %16
  %24 = load ptr, ptr %19, align 8
  %25 = call noalias dereferenceable_or_null(72) ptr @wmem_alloc0(ptr noundef %24, i64 noundef 72) #13
  %26 = getelementptr inbounds nuw i8, ptr %25, i64 24
  store i32 -1, ptr %26, align 8
  %27 = getelementptr inbounds nuw i8, ptr %25, i64 56
  store i8 -1, ptr %27, align 8
  %28 = load ptr, ptr %19, align 8
  %29 = load i32, ptr @proto_ngap, align 4
  call void @p_add_proto_data(ptr noundef %28, ptr noundef %18, i32 noundef %29, i32 noundef 0, ptr noundef %25)
  br label %ngap_get_private_data.exit.i

ngap_get_private_data.exit.i:                     ; preds = %23, %16
  %.0.i.i = phi ptr [ %22, %16 ], [ %25, %23 ]
  %30 = load ptr, ptr %17, align 8
  %31 = getelementptr inbounds nuw i8, ptr %30, i64 8
  %32 = load ptr, ptr %31, align 8
  call void @col_set_writable(ptr noundef %32, i32 noundef 25, i1 noundef zeroext false)
  %33 = getelementptr inbounds nuw i8, ptr %7, i64 24
  %34 = load ptr, ptr %33, align 8
  %35 = load i32, ptr @ett_ngap_TargettoSource_Failure_TransparentContainer, align 4
  %36 = call ptr @proto_item_add_subtree(ptr noundef %34, i32 noundef %35)
  %37 = getelementptr inbounds nuw i8, ptr %.0.i.i, i64 24
  %38 = load i32, ptr %37, align 8
  %cond.i = icmp eq i32 %38, 0
  br i1 %cond.i, label %39, label %45

39:                                               ; preds = %ngap_get_private_data.exit.i
  %40 = load ptr, ptr %6, align 8
  %41 = load ptr, ptr %17, align 8
  call void @llvm.lifetime.start.p0(i64 208, ptr nonnull %5) #12
  call void @asn1_ctx_init(ptr noundef nonnull %5, i32 noundef 1, i1 noundef zeroext true, ptr noundef %41)
  %42 = load i32, ptr @hf_ngap_TargetNGRANNode_ToSourceNGRANNode_FailureTransparentContainer_PDU, align 4
  %43 = load i32, ptr @ett_ngap_TargetNGRANNode_ToSourceNGRANNode_FailureTransparentContainer, align 4
  %44 = call i32 @dissect_per_sequence(ptr noundef %40, i32 noundef 0, ptr noundef nonnull %5, ptr noundef %36, i32 noundef %42, i32 noundef %43, ptr noundef nonnull @TargetNGRANNode_ToSourceNGRANNode_FailureTransparentContainer_sequence)
  call void @llvm.lifetime.end.p0(i64 208, ptr nonnull %5) #12
  br label %45

45:                                               ; preds = %39, %ngap_get_private_data.exit.i
  %46 = load ptr, ptr %17, align 8
  %47 = getelementptr inbounds nuw i8, ptr %46, i64 8
  %48 = load ptr, ptr %47, align 8
  call void @col_set_writable(ptr noundef %48, i32 noundef 25, i1 noundef zeroext true)
  br label %dissect_ngap_TargettoSource_Failure_TransparentContainer.exit

dissect_ngap_TargettoSource_Failure_TransparentContainer.exit: ; preds = %4, %14, %45
  call void @llvm.lifetime.end.p0(i64 8, ptr nonnull %6) #12
  %49 = add i32 %9, 7
  %50 = ashr i32 %49, 3
  call void @llvm.lifetime.end.p0(i64 208, ptr nonnull %7) #12
  ret i32 %50
}